; Function Attrs: mustprogress uwtable
define noundef i32 @_ZNK32pxrInternal_v0_24__pxrReserved__13TraceReporter15GetCounterIndexERKNS_7TfTokenE(ptr nocapture noundef nonnull readonly align 8 dereferenceable(160) %0, ptr noundef nonnull align 8 dereferenceable(8) %1) local_unnamed_addr #1 align 2 {
  %3 = alloca %"class.pxrInternal_v0_24__pxrReserved__::TfCallContext", align 8
  %4 = getelementptr inbounds nuw i8, ptr %0, i64 144
  call void @llvm.lifetime.start.p0(i64 40, ptr nonnull %3)
  %5 = load ptr, ptr %4, align 8
  %.not.i = icmp eq ptr %5, null
  br i1 %.not.i, label %6, label %_ZNK32pxrInternal_v0_24__pxrReserved__8TfRefPtrINS_18TraceAggregateTreeEEptEv.exit

6:                                                ; preds = %2
  store ptr @.str.17, ptr %3, align 8
  %7 = getelementptr inbounds nuw i8, ptr %3, i64 8
  store ptr @__func__._ZNK32pxrInternal_v0_24__pxrReserved__8TfRefPtrINS_18TraceAggregateNodeEEptEv, ptr %7, align 8
  %8 = getelementptr inbounds nuw i8, ptr %3, i64 16
  store i64 936, ptr %8, align 8
  %9 = getelementptr inbounds nuw i8, ptr %3, i64 24
  store ptr @__PRETTY_FUNCTION__._ZNK32pxrInternal_v0_24__pxrReserved__8TfRefPtrINS_18TraceAggregateTreeEEptEv, ptr %9, align 8
  %10 = getelementptr inbounds nuw i8, ptr %3, i64 32
  store i8 0, ptr %10, align 8
  call void @_ZN32pxrInternal_v0_24__pxrReserved__40Tf_PostNullSmartPtrDereferenceFatalErrorERKNS_13TfCallContextEPKc(ptr noundef nonnull align 8 dereferenceable(33) %3, ptr noundef nonnull @_ZTSN32pxrInternal_v0_24__pxrReserved__8TfRefPtrINS_18TraceAggregateTreeEEE) #32
  unreachable

_ZNK32pxrInternal_v0_24__pxrReserved__8TfRefPtrINS_18TraceAggregateTreeEEptEv.exit: ; preds = %2
  call void @llvm.lifetime.end.p0(i64 40, ptr nonnull %3)
  %11 = tail call noundef i32 @_ZNK32pxrInternal_v0_24__pxrReserved__18TraceAggregateTree15GetCounterIndexERKNS_7TfTokenE(ptr noundef nonnull align 8 dereferenceable(196) %5, ptr noundef nonnull align 8 dereferenceable(8) %1)
  ret i32 %11
}